target datalayout = "e-m:e-p270:32:32-p271:32:32-p272:64:64-i64:64-i128:128-f80:128-n8:16:32:64-S128"
target triple = "x86_64-pc-linux-gnu"

%struct.StringSlice_ = type { ptr, i64 }

; Function Attrs: nounwind uwtable
define dso_local void @slice_trim(ptr noundef %0) #0 {
  %2 = alloca ptr, align 8
  %3 = alloca i64, align 8
  store ptr %0, ptr %2, align 8
  store i64 0, ptr %3, align 8
  br label %4

4:                                                ; preds = %21, %1
  %5 = load i64, ptr %3, align 8
  %6 = load ptr, ptr %2, align 8
  %7 = getelementptr inbounds %struct.StringSlice_, ptr %6, i32 0, i32 1
  %8 = load i64, ptr %7, align 8
  %9 = icmp ult i64 %5, %8
  br i1 %9, label %10, label %24

10:                                               ; preds = %4
  %11 = load ptr, ptr %2, align 8
  %12 = getelementptr inbounds %struct.StringSlice_, ptr %11, i32 0, i32 0
  %13 = load ptr, ptr %12, align 8
  %14 = load i64, ptr %3, align 8
  %15 = getelementptr inbounds i8, ptr %13, i64 %14
  %16 = load i8, ptr %15, align 1
  %17 = sext i8 %16 to i32
  %18 = icmp ne i32 %17, 32
  br i1 %18, label %19, label %20

19:                                               ; preds = %10
  br label %24

20:                                               ; preds = %10
  br label %21

21:                                               ; preds = %20
  %22 = load i64, ptr %3, align 8
  %23 = add i64 %22, 1
  store i64 %23, ptr %3, align 8
  br label %4, !llvm.loop !19

24:                                               ; preds = %19, %4
  %25 = load i64, ptr %3, align 8
  %26 = load ptr, ptr %2, align 8
  %27 = getelementptr inbounds %struct.StringSlice_, ptr %26, i32 0, i32 0
  %28 = load ptr, ptr %27, align 8
  %29 = getelementptr inbounds i8, ptr %28, i64 %25
  store ptr %29, ptr %27, align 8
  %30 = load i64, ptr %3, align 8
  %31 = load ptr, ptr %2, align 8
  %32 = getelementptr inbounds %struct.StringSlice_, ptr %31, i32 0, i32 1
  %33 = load i64, ptr %32, align 8
  %34 = sub i64 %33, %30
  store i64 %34, ptr %32, align 8
  %35 = load ptr, ptr %2, align 8
  %36 = getelementptr inbounds %struct.StringSlice_, ptr %35, i32 0, i32 1
  %37 = load i64, ptr %36, align 8
  store i64 %37, ptr %3, align 8
  br label %38

38:                                               ; preds = %53, %24
  %39 = load i64, ptr %3, align 8
  %40 = icmp ugt i64 %39, 0
  br i1 %40, label %41, label %56

41:                                               ; preds = %38
  %42 = load ptr, ptr %2, align 8
  %43 = getelementptr inbounds %struct.StringSlice_, ptr %42, i32 0, i32 0
  %44 = load ptr, ptr %43, align 8
  %45 = load i64, ptr %3, align 8
  %46 = sub i64 %45, 1
  %47 = getelementptr inbounds i8, ptr %44, i64 %46
  %48 = load i8, ptr %47, align 1
  %49 = sext i8 %48 to i32
  %50 = icmp ne i32 %49, 32
  br i1 %50, label %51, label %52

51:                                               ; preds = %41
  br label %56

52:                                               ; preds = %41
  br label %53

53:                                               ; preds = %52
  %54 = load i64, ptr %3, align 8
  %55 = add i64 %54, -1
  store i64 %55, ptr %3, align 8
  br label %38, !llvm.loop !20

56:                                               ; preds = %51, %38
  %57 = load i64, ptr %3, align 8
  %58 = load ptr, ptr %2, align 8
  %59 = getelementptr inbounds %struct.StringSlice_, ptr %58, i32 0, i32 1
  store i64 %57, ptr %59, align 8
  ret void
}