; Function Attrs: nofree norecurse nosync nounwind memory(read, argmem: readwrite, inaccessiblemem: none) uwtable
define dso_local void @slice_trim(ptr nocapture noundef %0) local_unnamed_addr #12 {
  %2 = getelementptr inbounds i8, ptr %0, i64 8
  %3 = load i64, ptr %2, align 8
  %.not31 = icmp eq i64 %3, 0
  %.pre = load ptr, ptr %0, align 8
  br i1 %.not31, label %._crit_edge, label %.lr.ph

.lr.ph:                                           ; preds = %1, %6
  %.018 = phi i64 [ %7, %6 ], [ 0, %1 ]
  %4 = getelementptr inbounds i8, ptr %.pre, i64 %.018
  %5 = load i8, ptr %4, align 1
  %.not = icmp eq i8 %5, 32
  br i1 %.not, label %6, label %._crit_edge

6:                                                ; preds = %.lr.ph
  %7 = add nuw i64 %.018, 1
  %exitcond.not = icmp eq i64 %7, %3
  br i1 %exitcond.not, label %._crit_edge, label %.lr.ph, !llvm.loop !18

._crit_edge:                                      ; preds = %6, %.lr.ph, %1
  %.0.lcssa = phi i64 [ 0, %1 ], [ %.018, %.lr.ph ], [ %3, %6 ]
  %8 = getelementptr inbounds i8, ptr %.pre, i64 %.0.lcssa
  store ptr %8, ptr %0, align 8
  %9 = sub i64 %3, %.0.lcssa
  store i64 %9, ptr %2, align 8
  %invariant.gep = getelementptr i8, ptr %8, i64 -1
  %.not1523 = icmp eq i64 %9, 0
  br i1 %.not1523, label %._crit_edge27, label %.lr.ph26

.lr.ph26:                                         ; preds = %._crit_edge, %11
  %.124 = phi i64 [ %12, %11 ], [ %9, %._crit_edge ]
  %gep = getelementptr i8, ptr %invariant.gep, i64 %.124
  %10 = load i8, ptr %gep, align 1
  %.not16 = icmp eq i8 %10, 32
  br i1 %.not16, label %11, label %._crit_edge27

11:                                               ; preds = %.lr.ph26
  %12 = add i64 %.124, -1
  %.not15 = icmp eq i64 %12, 0
  br i1 %.not15, label %._crit_edge27, label %.lr.ph26, !llvm.loop !19

._crit_edge27:                                    ; preds = %11, %.lr.ph26, %._crit_edge
  %.1.lcssa = phi i64 [ 0, %._crit_edge ], [ %.124, %.lr.ph26 ], [ 0, %11 ]
  store i64 %.1.lcssa, ptr %2, align 8
  ret void
}